; Function Attrs: mustprogress uwtable
define internal noundef zeroext i1 @_ZN32pxrInternal_v0_24__pxrReserved__12_GLOBAL__N_120Js_PolymorphicWriterIN12_GLOBAL__N_110_WriterFixIN3pxr9rapidjson6WriterINS5_19BasicOStreamWrapperISoEENS5_4UTF8IcEESA_NS5_12CrtAllocatorELj0EEEEEE4BoolEb(ptr noundef nonnull align 8 dereferenceable(69) %0, i1 noundef zeroext %1) unnamed_addr #3 align 2 {
  %3 = getelementptr inbounds nuw i8, ptr %0, i64 8
  %4 = getelementptr inbounds nuw i8, ptr %0, i64 40
  %5 = load ptr, ptr %4, align 8
  %6 = getelementptr inbounds nuw i8, ptr %0, i64 32
  %7 = load ptr, ptr %6, align 8
  %.not.i.i = icmp eq ptr %5, %7
  br i1 %.not.i.i, label %23, label %8

8:                                                ; preds = %2
  %9 = getelementptr inbounds i8, ptr %5, i64 -16
  %10 = load i64, ptr %9, align 8
  %.not6.i.i = icmp eq i64 %10, 0
  br i1 %.not6.i.i, label %21, label %.sink.split.i.i

.sink.split.i.i:                                  ; preds = %8
  %11 = getelementptr inbounds i8, ptr %5, i64 -8
  %12 = load i8, ptr %11, align 8
  %13 = trunc i8 %12 to i1
  %14 = load ptr, ptr %3, align 8
  %15 = and i64 %10, 1
  %16 = icmp eq i64 %15, 0
  %17 = or i1 %16, %13
  %.sink7.i.i = select i1 %17, i8 44, i8 58
  %18 = load ptr, ptr %14, align 8
  %19 = tail call noundef nonnull align 8 dereferenceable(8) ptr @_ZNSo3putEc(ptr noundef nonnull align 8 dereferenceable(8) %18, i8 noundef signext %.sink7.i.i)
  %.pre.i = load i64, ptr %9, align 8
  %20 = add i64 %.pre.i, 1
  br label %21

21:                                               ; preds = %.sink.split.i.i, %8
  %22 = phi i64 [ %20, %.sink.split.i.i ], [ 1, %8 ]
  store i64 %22, ptr %9, align 8
  br label %_ZN3pxr9rapidjson6WriterINS0_19BasicOStreamWrapperISoEENS0_4UTF8IcEES5_NS0_12CrtAllocatorELj0EE6PrefixENS0_4TypeE.exit.i

23:                                               ; preds = %2
  %24 = getelementptr inbounds nuw i8, ptr %0, i64 68
  store i8 1, ptr %24, align 4
  br label %_ZN3pxr9rapidjson6WriterINS0_19BasicOStreamWrapperISoEENS0_4UTF8IcEES5_NS0_12CrtAllocatorELj0EE6PrefixENS0_4TypeE.exit.i

_ZN3pxr9rapidjson6WriterINS0_19BasicOStreamWrapperISoEENS0_4UTF8IcEES5_NS0_12CrtAllocatorELj0EE6PrefixENS0_4TypeE.exit.i: ; preds = %23, %21
  %25 = tail call noundef zeroext i1 @_ZN3pxr9rapidjson6WriterINS0_19BasicOStreamWrapperISoEENS0_4UTF8IcEES5_NS0_12CrtAllocatorELj0EE9WriteBoolEb(ptr noundef nonnull align 8 dereferenceable(61) %3, i1 noundef zeroext %1)
  %26 = load ptr, ptr %4, align 8
  %27 = load ptr, ptr %6, align 8
  %28 = icmp eq ptr %26, %27
  br i1 %28, label %29, label %_ZN3pxr9rapidjson6WriterINS0_19BasicOStreamWrapperISoEENS0_4UTF8IcEES5_NS0_12CrtAllocatorELj0EE4BoolEb.exit

29:                                               ; preds = %_ZN3pxr9rapidjson6WriterINS0_19BasicOStreamWrapperISoEENS0_4UTF8IcEES5_NS0_12CrtAllocatorELj0EE6PrefixENS0_4TypeE.exit.i
  %30 = load ptr, ptr %3, align 8
  %31 = load ptr, ptr %30, align 8
  %32 = tail call noundef nonnull align 8 dereferenceable(8) ptr @_ZNSo5flushEv(ptr noundef nonnull align 8 dereferenceable(8) %31)
  br label %_ZN3pxr9rapidjson6WriterINS0_19BasicOStreamWrapperISoEENS0_4UTF8IcEES5_NS0_12CrtAllocatorELj0EE4BoolEb.exit

_ZN3pxr9rapidjson6WriterINS0_19BasicOStreamWrapperISoEENS0_4UTF8IcEES5_NS0_12CrtAllocatorELj0EE4BoolEb.exit: ; preds = %_ZN3pxr9rapidjson6WriterINS0_19BasicOStreamWrapperISoEENS0_4UTF8IcEES5_NS0_12CrtAllocatorELj0EE6PrefixENS0_4TypeE.exit.i, %29
  ret i1 %25
}